target datalayout = "e-m:e-p270:32:32-p271:32:32-p272:64:64-i64:64-i128:128-f80:128-n8:16:32:64-S128"
target triple = "x86_64-pc-linux-gnu"

@_ZN4llvmL13firstByteMarkE = internal constant [7 x i8] c"\00\00\C0\E0\F0\F8\FC", align 1

; Function Attrs: mustprogress nounwind uwtable
define dso_local noundef i32 @_ZN4llvm18ConvertUTF32toUTF8EPPKjS1_PPhS3_NS_15ConversionFlagsE(ptr noundef %0, ptr noundef %1, ptr noundef %2, ptr noundef %3, i32 noundef %4) #0 {
  %6 = alloca ptr, align 8
  %7 = alloca ptr, align 8
  %8 = alloca ptr, align 8
  %9 = alloca ptr, align 8
  %10 = alloca i32, align 4
  %11 = alloca i32, align 4
  %12 = alloca ptr, align 8
  %13 = alloca ptr, align 8
  %14 = alloca i32, align 4
  %15 = alloca i16, align 2
  %16 = alloca i32, align 4
  %17 = alloca i32, align 4
  store ptr %0, ptr %6, align 8
  store ptr %1, ptr %7, align 8
  store ptr %2, ptr %8, align 8
  store ptr %3, ptr %9, align 8
  store i32 %4, ptr %10, align 4
  store i32 0, ptr %11, align 4
  %18 = load ptr, ptr %6, align 8
  %19 = load ptr, ptr %18, align 8
  store ptr %19, ptr %12, align 8
  %20 = load ptr, ptr %8, align 8
  %21 = load ptr, ptr %20, align 8
  store ptr %21, ptr %13, align 8
  br label %22

22:                                               ; preds = %121, %5
  %23 = load ptr, ptr %12, align 8
  %24 = load ptr, ptr %7, align 8
  %25 = icmp ult ptr %23, %24
  br i1 %25, label %26, label %127

26:                                               ; preds = %22
  store i16 0, ptr %15, align 2
  store i32 191, ptr %16, align 4
  store i32 128, ptr %17, align 4
  %27 = load ptr, ptr %12, align 8
  %28 = getelementptr inbounds i32, ptr %27, i32 1
  store ptr %28, ptr %12, align 8
  %29 = load i32, ptr %27, align 4
  store i32 %29, ptr %14, align 4
  %30 = load i32, ptr %10, align 4
  %31 = icmp eq i32 %30, 0
  br i1 %31, label %32, label %42

32:                                               ; preds = %26
  %33 = load i32, ptr %14, align 4
  %34 = icmp uge i32 %33, 55296
  br i1 %34, label %35, label %41

35:                                               ; preds = %32
  %36 = load i32, ptr %14, align 4
  %37 = icmp ule i32 %36, 57343
  br i1 %37, label %38, label %41

38:                                               ; preds = %35
  %39 = load ptr, ptr %12, align 8
  %40 = getelementptr inbounds i32, ptr %39, i32 -1
  store ptr %40, ptr %12, align 8
  store i32 3, ptr %11, align 4
  br label %127

41:                                               ; preds = %35, %32
  br label %42

42:                                               ; preds = %41, %26
  %43 = load i32, ptr %14, align 4
  %44 = icmp ult i32 %43, 128
  br i1 %44, label %45, label %46

45:                                               ; preds = %42
  store i16 1, ptr %15, align 2
  br label %62

46:                                               ; preds = %42
  %47 = load i32, ptr %14, align 4
  %48 = icmp ult i32 %47, 2048
  br i1 %48, label %49, label %50

49:                                               ; preds = %46
  store i16 2, ptr %15, align 2
  br label %61

50:                                               ; preds = %46
  %51 = load i32, ptr %14, align 4
  %52 = icmp ult i32 %51, 65536
  br i1 %52, label %53, label %54

53:                                               ; preds = %50
  store i16 3, ptr %15, align 2
  br label %60

54:                                               ; preds = %50
  %55 = load i32, ptr %14, align 4
  %56 = icmp ule i32 %55, 1114111
  br i1 %56, label %57, label %58

57:                                               ; preds = %54
  store i16 4, ptr %15, align 2
  br label %59

58:                                               ; preds = %54
  store i16 3, ptr %15, align 2
  store i32 65533, ptr %14, align 4
  store i32 3, ptr %11, align 4
  br label %59

59:                                               ; preds = %58, %57
  br label %60

60:                                               ; preds = %59, %53
  br label %61

61:                                               ; preds = %60, %49
  br label %62

62:                                               ; preds = %61, %45
  %63 = load i16, ptr %15, align 2
  %64 = zext i16 %63 to i32
  %65 = load ptr, ptr %13, align 8
  %66 = sext i32 %64 to i64
  %67 = getelementptr inbounds i8, ptr %65, i64 %66
  store ptr %67, ptr %13, align 8
  %68 = load ptr, ptr %13, align 8
  %69 = load ptr, ptr %9, align 8
  %70 = icmp ugt ptr %68, %69
  br i1 %70, label %71, label %80

71:                                               ; preds = %62
  %72 = load ptr, ptr %12, align 8
  %73 = getelementptr inbounds i32, ptr %72, i32 -1
  store ptr %73, ptr %12, align 8
  %74 = load i16, ptr %15, align 2
  %75 = zext i16 %74 to i32
  %76 = load ptr, ptr %13, align 8
  %77 = sext i32 %75 to i64
  %78 = sub i64 0, %77
  %79 = getelementptr inbounds i8, ptr %76, i64 %78
  store ptr %79, ptr %13, align 8
  store i32 2, ptr %11, align 4
  br label %127

80:                                               ; preds = %62
  %81 = load i16, ptr %15, align 2
  %82 = zext i16 %81 to i32
  switch i32 %82, label %121 [
    i32 4, label %83
    i32 3, label %92
    i32 2, label %101
    i32 1, label %110
  ]

83:                                               ; preds = %80
  %84 = load i32, ptr %14, align 4
  %85 = or i32 %84, 128
  %86 = and i32 %85, 191
  %87 = trunc i32 %86 to i8
  %88 = load ptr, ptr %13, align 8
  %89 = getelementptr inbounds i8, ptr %88, i32 -1
  store ptr %89, ptr %13, align 8
  store i8 %87, ptr %89, align 1
  %90 = load i32, ptr %14, align 4
  %91 = lshr i32 %90, 6
  store i32 %91, ptr %14, align 4
  br label %92

92:                                               ; preds = %83, %80
  %93 = load i32, ptr %14, align 4
  %94 = or i32 %93, 128
  %95 = and i32 %94, 191
  %96 = trunc i32 %95 to i8
  %97 = load ptr, ptr %13, align 8
  %98 = getelementptr inbounds i8, ptr %97, i32 -1
  store ptr %98, ptr %13, align 8
  store i8 %96, ptr %98, align 1
  %99 = load i32, ptr %14, align 4
  %100 = lshr i32 %99, 6
  store i32 %100, ptr %14, align 4
  br label %101

101:                                              ; preds = %92, %80
  %102 = load i32, ptr %14, align 4
  %103 = or i32 %102, 128
  %104 = and i32 %103, 191
  %105 = trunc i32 %104 to i8
  %106 = load ptr, ptr %13, align 8
  %107 = getelementptr inbounds i8, ptr %106, i32 -1
  store ptr %107, ptr %13, align 8
  store i8 %105, ptr %107, align 1
  %108 = load i32, ptr %14, align 4
  %109 = lshr i32 %108, 6
  store i32 %109, ptr %14, align 4
  br label %110

110:                                              ; preds = %101, %80
  %111 = load i32, ptr %14, align 4
  %112 = load i16, ptr %15, align 2
  %113 = zext i16 %112 to i64
  %114 = getelementptr inbounds [7 x i8], ptr @_ZN4llvmL13firstByteMarkE, i64 0, i64 %113
  %115 = load i8, ptr %114, align 1
  %116 = zext i8 %115 to i32
  %117 = or i32 %111, %116
  %118 = trunc i32 %117 to i8
  %119 = load ptr, ptr %13, align 8
  %120 = getelementptr inbounds i8, ptr %119, i32 -1
  store ptr %120, ptr %13, align 8
  store i8 %118, ptr %120, align 1
  br label %121

121:                                              ; preds = %110, %80
  %122 = load i16, ptr %15, align 2
  %123 = zext i16 %122 to i32
  %124 = load ptr, ptr %13, align 8
  %125 = sext i32 %123 to i64
  %126 = getelementptr inbounds i8, ptr %124, i64 %125
  store ptr %126, ptr %13, align 8
  br label %22, !llvm.loop !8

127:                                              ; preds = %71, %38, %22
  %128 = load ptr, ptr %12, align 8
  %129 = load ptr, ptr %6, align 8
  store ptr %128, ptr %129, align 8
  %130 = load ptr, ptr %13, align 8
  %131 = load ptr, ptr %8, align 8
  store ptr %130, ptr %131, align 8
  %132 = load i32, ptr %11, align 4
  ret i32 %132
}