; Function Attrs: mustprogress nofree norecurse nosync nounwind memory(readwrite, inaccessiblemem: none) uwtable
define dso_local noundef range(i32 0, 4) i32 @_ZN4llvm18ConvertUTF32toUTF8EPPKjS1_PPhS3_NS_15ConversionFlagsE(ptr nocapture noundef %0, ptr noundef readnone %1, ptr nocapture noundef %2, ptr noundef readnone %3, i32 noundef %4) local_unnamed_addr #0 {
  %6 = load ptr, ptr %0, align 8
  %7 = load ptr, ptr %2, align 8
  %8 = icmp ult ptr %6, %1
  br i1 %8, label %.lr.ph, label %._crit_edge

.lr.ph:                                           ; preds = %5
  %9 = icmp eq i32 %4, 0
  br i1 %9, label %.lr.ph.split, label %.lr.ph.split.us

.lr.ph.split.us:                                  ; preds = %.lr.ph, %42
  %.060.us = phi i32 [ %.2.us, %42 ], [ 0, %.lr.ph ]
  %.04059.us = phi ptr [ %10, %42 ], [ %6, %.lr.ph ]
  %.04658.us = phi ptr [ %48, %42 ], [ %7, %.lr.ph ]
  %10 = getelementptr inbounds i8, ptr %.04059.us, i64 4
  %11 = load i32, ptr %.04059.us, align 4
  %12 = icmp ult i32 %11, 128
  br i1 %12, label %19, label %13

13:                                               ; preds = %.lr.ph.split.us
  %14 = icmp ult i32 %11, 2048
  br i1 %14, label %19, label %15

15:                                               ; preds = %13
  %16 = icmp ult i32 %11, 65536
  br i1 %16, label %19, label %17

17:                                               ; preds = %15
  %18 = icmp ult i32 %11, 1114112
  %..us = select i1 %18, i32 %11, i32 65533
  %.55.us = select i1 %18, i16 4, i16 3
  %.0..us = select i1 %18, i32 %.060.us, i32 3
  br label %19

19:                                               ; preds = %17, %15, %13, %.lr.ph.split.us
  %.043.us = phi i32 [ %11, %.lr.ph.split.us ], [ %11, %13 ], [ %11, %15 ], [ %..us, %17 ]
  %.042.us = phi i16 [ 1, %.lr.ph.split.us ], [ 2, %13 ], [ 3, %15 ], [ %.55.us, %17 ]
  %.2.us = phi i32 [ %.060.us, %.lr.ph.split.us ], [ %.060.us, %13 ], [ %.060.us, %15 ], [ %.0..us, %17 ]
  %20 = zext nneg i16 %.042.us to i64
  %21 = getelementptr inbounds i8, ptr %.04658.us, i64 %20
  %22 = icmp ugt ptr %21, %3
  br i1 %22, label %._crit_edge, label %23

23:                                               ; preds = %19
  switch i16 %.042.us, label %default.unreachable81 [
    i16 4, label %24
    i16 3, label %30
    i16 2, label %36
    i16 1, label %42
  ]

24:                                               ; preds = %23
  %25 = trunc i32 %.043.us to i8
  %26 = and i8 %25, 63
  %27 = or disjoint i8 %26, -128
  %28 = getelementptr inbounds i8, ptr %21, i64 -1
  store i8 %27, ptr %28, align 1
  %29 = lshr i32 %.043.us, 6
  br label %30

30:                                               ; preds = %24, %23
  %.349.us = phi ptr [ %21, %23 ], [ %28, %24 ]
  %.144.us = phi i32 [ %.043.us, %23 ], [ %29, %24 ]
  %31 = trunc i32 %.144.us to i8
  %32 = and i8 %31, 63
  %33 = or disjoint i8 %32, -128
  %34 = getelementptr inbounds i8, ptr %.349.us, i64 -1
  store i8 %33, ptr %34, align 1
  %35 = lshr i32 %.144.us, 6
  br label %36

36:                                               ; preds = %30, %23
  %.4.us = phi ptr [ %21, %23 ], [ %34, %30 ]
  %.245.us = phi i32 [ %.043.us, %23 ], [ %35, %30 ]
  %37 = trunc i32 %.245.us to i8
  %38 = and i8 %37, 63
  %39 = or disjoint i8 %38, -128
  %40 = getelementptr inbounds i8, ptr %.4.us, i64 -1
  store i8 %39, ptr %40, align 1
  %41 = lshr i32 %.245.us, 6
  br label %42

42:                                               ; preds = %36, %23
  %.5.us = phi ptr [ %21, %23 ], [ %40, %36 ]
  %.3.us = phi i32 [ %.043.us, %23 ], [ %41, %36 ]
  %43 = getelementptr inbounds [7 x i8], ptr @_ZN4llvmL13firstByteMarkE, i64 0, i64 %20
  %44 = load i8, ptr %43, align 1
  %45 = trunc i32 %.3.us to i8
  %46 = or i8 %44, %45
  %47 = getelementptr inbounds i8, ptr %.5.us, i64 -1
  store i8 %46, ptr %47, align 1
  %48 = getelementptr inbounds i8, ptr %47, i64 %20
  %49 = icmp ult ptr %10, %1
  br i1 %49, label %.lr.ph.split.us, label %._crit_edge, !llvm.loop !8

.lr.ph.split:                                     ; preds = %.lr.ph, %84
  %.060 = phi i32 [ %.2, %84 ], [ 0, %.lr.ph ]
  %.04059 = phi ptr [ %50, %84 ], [ %6, %.lr.ph ]
  %.04658 = phi ptr [ %90, %84 ], [ %7, %.lr.ph ]
  %50 = getelementptr inbounds i8, ptr %.04059, i64 4
  %51 = load i32, ptr %.04059, align 4
  %52 = and i32 %51, -2048
  %or.cond = icmp eq i32 %52, 55296
  br i1 %or.cond, label %._crit_edge, label %53

53:                                               ; preds = %.lr.ph.split
  %54 = icmp ult i32 %51, 128
  br i1 %54, label %61, label %55

55:                                               ; preds = %53
  %56 = icmp ult i32 %51, 2048
  br i1 %56, label %61, label %57

57:                                               ; preds = %55
  %58 = icmp ult i32 %51, 65536
  br i1 %58, label %61, label %59

59:                                               ; preds = %57
  %60 = icmp ult i32 %51, 1114112
  %. = select i1 %60, i32 %51, i32 65533
  %.55 = select i1 %60, i16 4, i16 3
  %.0. = select i1 %60, i32 %.060, i32 3
  br label %61

61:                                               ; preds = %59, %57, %55, %53
  %.043 = phi i32 [ %51, %53 ], [ %51, %55 ], [ %51, %57 ], [ %., %59 ]
  %.042 = phi i16 [ 1, %53 ], [ 2, %55 ], [ 3, %57 ], [ %.55, %59 ]
  %.2 = phi i32 [ %.060, %53 ], [ %.060, %55 ], [ %.060, %57 ], [ %.0., %59 ]
  %62 = zext nneg i16 %.042 to i64
  %63 = getelementptr inbounds i8, ptr %.04658, i64 %62
  %64 = icmp ugt ptr %63, %3
  br i1 %64, label %._crit_edge, label %65

65:                                               ; preds = %61
  switch i16 %.042, label %default.unreachable81 [
    i16 4, label %66
    i16 3, label %72
    i16 2, label %78
    i16 1, label %84
  ]

66:                                               ; preds = %65
  %67 = trunc i32 %.043 to i8
  %68 = and i8 %67, 63
  %69 = or disjoint i8 %68, -128
  %70 = getelementptr inbounds i8, ptr %63, i64 -1
  store i8 %69, ptr %70, align 1
  %71 = lshr i32 %.043, 6
  br label %72

72:                                               ; preds = %66, %65
  %.349 = phi ptr [ %63, %65 ], [ %70, %66 ]
  %.144 = phi i32 [ %.043, %65 ], [ %71, %66 ]
  %73 = trunc i32 %.144 to i8
  %74 = and i8 %73, 63
  %75 = or disjoint i8 %74, -128
  %76 = getelementptr inbounds i8, ptr %.349, i64 -1
  store i8 %75, ptr %76, align 1
  %77 = lshr i32 %.144, 6
  br label %78

78:                                               ; preds = %72, %65
  %.4 = phi ptr [ %63, %65 ], [ %76, %72 ]
  %.245 = phi i32 [ %.043, %65 ], [ %77, %72 ]
  %79 = trunc i32 %.245 to i8
  %80 = and i8 %79, 63
  %81 = or disjoint i8 %80, -128
  %82 = getelementptr inbounds i8, ptr %.4, i64 -1
  store i8 %81, ptr %82, align 1
  %83 = lshr i32 %.245, 6
  br label %84

84:                                               ; preds = %78, %65
  %.5 = phi ptr [ %63, %65 ], [ %82, %78 ]
  %.3 = phi i32 [ %.043, %65 ], [ %83, %78 ]
  %85 = getelementptr inbounds [7 x i8], ptr @_ZN4llvmL13firstByteMarkE, i64 0, i64 %62
  %86 = load i8, ptr %85, align 1
  %87 = trunc i32 %.3 to i8
  %88 = or i8 %86, %87
  %89 = getelementptr inbounds i8, ptr %.5, i64 -1
  store i8 %88, ptr %89, align 1
  %90 = getelementptr inbounds i8, ptr %89, i64 %62
  %91 = icmp ult ptr %50, %1
  br i1 %91, label %.lr.ph.split, label %._crit_edge, !llvm.loop !8

default.unreachable81:                            ; preds = %23, %65
  unreachable

._crit_edge:                                      ; preds = %42, %19, %84, %.lr.ph.split, %61, %5
  %.046.lcssa = phi ptr [ %7, %5 ], [ %.04658, %61 ], [ %.04658, %.lr.ph.split ], [ %90, %84 ], [ %.04658.us, %19 ], [ %48, %42 ]
  %.040.lcssa = phi ptr [ %6, %5 ], [ %.04059, %61 ], [ %.04059, %.lr.ph.split ], [ %50, %84 ], [ %.04059.us, %19 ], [ %10, %42 ]
  %.1 = phi i32 [ 0, %5 ], [ 2, %61 ], [ 3, %.lr.ph.split ], [ %.2, %84 ], [ 2, %19 ], [ %.2.us, %42 ]
  store ptr %.040.lcssa, ptr %0, align 8
  store ptr %.046.lcssa, ptr %2, align 8
  ret i32 %.1
}